; ModuleID = '49/1180.c'
source_filename = "49/1180.c"
target datalayout = "e-m:e-p270:32:32-p271:32:32-p272:64:64-i64:64-f80:128-n8:16:32:64-S128"
target triple = "x86_64-pc-linux-gnu"

@.str = private unnamed_addr constant [4 x i8] c"%s\0A\00", align 1

; Function Attrs: noinline nounwind uwtable
define dso_local void @f(i8* %0, i8* %1, i32 %2, i32 %3) #0 {
  %5 = alloca i8*, align 8
  %6 = alloca i8*, align 8
  %7 = alloca i32, align 4
  %8 = alloca i32, align 4
  store i8* %0, i8** %5, align 8
  store i8* %1, i8** %6, align 8
  store i32 %2, i32* %7, align 4
  store i32 %3, i32* %8, align 4
  %9 = load i32, i32* %8, align 4
  %10 = load i32, i32* %7, align 4
  %11 = sub nsw i32 %10, 1
  %12 = icmp sle i32 %9, %11
  br i1 %12, label %13, label %31

13:                                               ; preds = %4
  %14 = load i8*, i8** %5, align 8
  %15 = load i32, i32* %7, align 4
  %16 = load i32, i32* %8, align 4
  %17 = sub nsw i32 %15, %16
  %18 = sub nsw i32 %17, 1
  %19 = sext i32 %18 to i64
  %20 = getelementptr inbounds i8, i8* %14, i64 %19
  %21 = load i8, i8* %20, align 1
  %22 = load i8*, i8** %6, align 8
  %23 = load i32, i32* %8, align 4
  %24 = sext i32 %23 to i64
  %25 = getelementptr inbounds i8, i8* %22, i64 %24
  store i8 %21, i8* %25, align 1
  %26 = load i8*, i8** %5, align 8
  %27 = load i8*, i8** %6, align 8
  %28 = load i32, i32* %7, align 4
  %29 = load i32, i32* %8, align 4
  %30 = add nsw i32 %29, 1
  call void @f(i8* %26, i8* %27, i32 %28, i32 %30)
  br label %31

31:                                               ; preds = %13, %4
  ret void
}

; Function Attrs: noinline nounwind uwtable
define dso_local i32 @main() #0 {
  %1 = alloca i32, align 4
  %2 = alloca [501 x i8], align 16
  %3 = alloca [501 x i8], align 16
  %4 = alloca [501 x i8], align 16
  %5 = alloca i32, align 4
  %6 = alloca i32, align 4
  %7 = alloca i32, align 4
  %8 = alloca i32, align 4
  store i32 0, i32* %1, align 4
  %9 = bitcast [501 x i8]* %3 to i8*
  call void @llvm.memset.p0i8.i64(i8* align 16 %9, i8 0, i64 501, i1 false)
  %10 = bitcast [501 x i8]* %4 to i8*
  call void @llvm.memset.p0i8.i64(i8* align 16 %10, i8 0, i64 501, i1 false)
  %11 = getelementptr inbounds [501 x i8], [501 x i8]* %2, i64 0, i64 0
  %12 = call i32 (i8*, ...) bitcast (i32 (...)* @gets to i32 (i8*, ...)*)(i8* %11)
  %13 = getelementptr inbounds [501 x i8], [501 x i8]* %2, i64 0, i64 0
  %14 = call i64 @strlen(i8* %13) #4
  %15 = trunc i64 %14 to i32
  store i32 %15, i32* %5, align 4
  store i32 2, i32* %6, align 4
  br label %16

16:                                               ; preds = %62, %0
  %17 = load i32, i32* %6, align 4
  %18 = load i32, i32* %5, align 4
  %19 = icmp sle i32 %17, %18
  br i1 %19, label %20, label %65

20:                                               ; preds = %16
  store i32 0, i32* %7, align 4
  br label %21

21:                                               ; preds = %58, %20
  %22 = load i32, i32* %7, align 4
  %23 = load i32, i32* %6, align 4
  %24 = add nsw i32 %22, %23
  %25 = load i32, i32* %5, align 4
  %26 = icmp sle i32 %24, %25
  br i1 %26, label %27, label %61

27:                                               ; preds = %21
  store i32 0, i32* %8, align 4
  br label %28

28:                                               ; preds = %42, %27
  %29 = load i32, i32* %8, align 4
  %30 = load i32, i32* %6, align 4
  %31 = icmp slt i32 %29, %30
  br i1 %31, label %32, label %45

32:                                               ; preds = %28
  %33 = load i32, i32* %7, align 4
  %34 = load i32, i32* %8, align 4
  %35 = add nsw i32 %33, %34
  %36 = sext i32 %35 to i64
  %37 = getelementptr inbounds [501 x i8], [501 x i8]* %2, i64 0, i64 %36
  %38 = load i8, i8* %37, align 1
  %39 = load i32, i32* %8, align 4
  %40 = sext i32 %39 to i64
  %41 = getelementptr inbounds [501 x i8], [501 x i8]* %4, i64 0, i64 %40
  store i8 %38, i8* %41, align 1
  br label %42

42:                                               ; preds = %32
  %43 = load i32, i32* %8, align 4
  %44 = add nsw i32 %43, 1
  store i32 %44, i32* %8, align 4
  br label %28

45:                                               ; preds = %28
  %46 = getelementptr inbounds [501 x i8], [501 x i8]* %4, i64 0, i64 0
  %47 = getelementptr inbounds [501 x i8], [501 x i8]* %3, i64 0, i64 0
  %48 = load i32, i32* %6, align 4
  call void @f(i8* %46, i8* %47, i32 %48, i32 0)
  %49 = getelementptr inbounds [501 x i8], [501 x i8]* %4, i64 0, i64 0
  %50 = getelementptr inbounds [501 x i8], [501 x i8]* %3, i64 0, i64 0
  %51 = call i32 @strcmp(i8* %49, i8* %50) #4
  %52 = icmp eq i32 %51, 0
  br i1 %52, label %53, label %56

53:                                               ; preds = %45
  %54 = getelementptr inbounds [501 x i8], [501 x i8]* %4, i64 0, i64 0
  %55 = call i32 (i8*, ...) @printf(i8* getelementptr inbounds ([4 x i8], [4 x i8]* @.str, i64 0, i64 0), i8* %54)
  br label %57

56:                                               ; preds = %45
  br label %58

57:                                               ; preds = %53
  br label %58

58:                                               ; preds = %57, %56
  %59 = load i32, i32* %7, align 4
  %60 = add nsw i32 %59, 1
  store i32 %60, i32* %7, align 4
  br label %21

61:                                               ; preds = %21
  br label %62

62:                                               ; preds = %61
  %63 = load i32, i32* %6, align 4
  %64 = add nsw i32 %63, 1
  store i32 %64, i32* %6, align 4
  br label %16

65:                                               ; preds = %16
  ret i32 0
}

; Function Attrs: argmemonly nounwind willreturn
declare void @llvm.memset.p0i8.i64(i8* nocapture writeonly, i8, i64, i1 immarg) #1

declare dso_local i32 @gets(...) #2

; Function Attrs: nounwind readonly
declare dso_local i64 @strlen(i8*) #3

; Function Attrs: nounwind readonly
declare dso_local i32 @strcmp(i8*, i8*) #3

declare dso_local i32 @printf(i8*, ...) #2


!llvm.module.flags = !{!0}
!llvm.ident = !{!1}

!0 = !{i32 1, !"wchar_size", i32 4}
!1 = !{!"clang version 10.0.0-4ubuntu1 "}
